; ModuleID = 'source-C-CXX/30/836.c'
source_filename = "source-C-CXX/30/836.c"
target datalayout = "e-m:e-p270:32:32-p271:32:32-p272:64:64-i64:64-f80:128-n8:16:32:64-S128"
target triple = "x86_64-pc-linux-gnu"

%struct.student = type { [200 x i8], [200 x i8], i8, i32, [20 x i8], [500 x i8] }

@.str = private unnamed_addr constant [3 x i8] c"%s\00", align 1
@.str.1 = private unnamed_addr constant [4 x i8] c"end\00", align 1
@.str.2 = private unnamed_addr constant [15 x i8] c"%s %c %d %s %s\00", align 1
@.str.3 = private unnamed_addr constant [19 x i8] c"%s %s %c %d %s %s\0A\00", align 1

; Function Attrs: nofree nounwind sspstrong uwtable
define dso_local i32 @main() local_unnamed_addr #0 {
  %1 = alloca [1000 x %struct.student], align 16
  %2 = getelementptr inbounds [1000 x %struct.student], [1000 x %struct.student]* %1, i64 0, i64 0, i32 0, i64 0
  call void @llvm.lifetime.start.p0i8(i64 928000, i8* nonnull %2) #4
  %3 = call i32 (i8*, ...) @__isoc99_scanf(i8* getelementptr inbounds ([3 x i8], [3 x i8]* @.str, i64 0, i64 0), i8* nonnull %2)
  %4 = bitcast [1000 x %struct.student]* %1 to i32*
  %5 = load i32, i32* %4, align 16
  %6 = icmp eq i32 %5, 6581861
  br i1 %6, label %42, label %12

7:                                                ; preds = %12
  %8 = trunc i64 %20 to i32
  %9 = icmp sgt i32 %8, 0
  br i1 %9, label %10, label %42

10:                                               ; preds = %7
  %11 = and i64 %20, 4294967295
  br label %25

12:                                               ; preds = %0, %12
  %13 = phi i64 [ %20, %12 ], [ 0, %0 ]
  %14 = getelementptr inbounds [1000 x %struct.student], [1000 x %struct.student]* %1, i64 0, i64 %13, i32 1, i64 0
  %15 = getelementptr inbounds [1000 x %struct.student], [1000 x %struct.student]* %1, i64 0, i64 %13, i32 2
  %16 = getelementptr inbounds [1000 x %struct.student], [1000 x %struct.student]* %1, i64 0, i64 %13, i32 3
  %17 = getelementptr inbounds [1000 x %struct.student], [1000 x %struct.student]* %1, i64 0, i64 %13, i32 4, i64 0
  %18 = getelementptr inbounds [1000 x %struct.student], [1000 x %struct.student]* %1, i64 0, i64 %13, i32 5, i64 0
  %19 = call i32 (i8*, ...) @__isoc99_scanf(i8* getelementptr inbounds ([15 x i8], [15 x i8]* @.str.2, i64 0, i64 0), i8* nonnull %14, i8* nonnull %15, i32* nonnull %16, i8* nonnull %17, i8* nonnull %18)
  %20 = add nuw i64 %13, 1
  %21 = getelementptr inbounds [1000 x %struct.student], [1000 x %struct.student]* %1, i64 0, i64 %20, i32 0, i64 0
  %22 = call i32 (i8*, ...) @__isoc99_scanf(i8* getelementptr inbounds ([3 x i8], [3 x i8]* @.str, i64 0, i64 0), i8* nonnull %21)
  %23 = call i32 @strcmp(i8* noundef nonnull %21, i8* noundef nonnull dereferenceable(4) getelementptr inbounds ([4 x i8], [4 x i8]* @.str.1, i64 0, i64 0)) #5
  %24 = icmp eq i32 %23, 0
  br i1 %24, label %7, label %12

25:                                               ; preds = %10, %25
  %26 = phi i64 [ %11, %10 ], [ %41, %25 ]
  %27 = phi i32 [ %8, %10 ], [ %28, %25 ]
  %28 = add nsw i32 %27, -1
  %29 = zext i32 %28 to i64
  %30 = getelementptr inbounds [1000 x %struct.student], [1000 x %struct.student]* %1, i64 0, i64 %29, i32 0, i64 0
  %31 = getelementptr inbounds [1000 x %struct.student], [1000 x %struct.student]* %1, i64 0, i64 %29, i32 1, i64 0
  %32 = getelementptr inbounds [1000 x %struct.student], [1000 x %struct.student]* %1, i64 0, i64 %29, i32 2
  %33 = load i8, i8* %32, align 16, !tbaa !5
  %34 = sext i8 %33 to i32
  %35 = getelementptr inbounds [1000 x %struct.student], [1000 x %struct.student]* %1, i64 0, i64 %29, i32 3
  %36 = load i32, i32* %35, align 4, !tbaa !10
  %37 = getelementptr inbounds [1000 x %struct.student], [1000 x %struct.student]* %1, i64 0, i64 %29, i32 4, i64 0
  %38 = getelementptr inbounds [1000 x %struct.student], [1000 x %struct.student]* %1, i64 0, i64 %29, i32 5, i64 0
  %39 = call i32 (i8*, ...) @printf(i8* nonnull dereferenceable(1) getelementptr inbounds ([19 x i8], [19 x i8]* @.str.3, i64 0, i64 0), i8* nonnull %30, i8* nonnull %31, i32 %34, i32 %36, i8* nonnull %37, i8* nonnull %38)
  %40 = icmp sgt i64 %26, 1
  %41 = add nsw i64 %26, -1
  br i1 %40, label %25, label %42, !llvm.loop !11

42:                                               ; preds = %25, %0, %7
  call void @llvm.lifetime.end.p0i8(i64 928000, i8* nonnull %2) #4
  ret i32 0
}

; Function Attrs: argmemonly mustprogress nofree nosync nounwind willreturn
declare void @llvm.lifetime.start.p0i8(i64 immarg, i8* nocapture) #1

; Function Attrs: nofree nounwind
declare noundef i32 @__isoc99_scanf(i8* nocapture noundef readonly, ...) local_unnamed_addr #2

; Function Attrs: argmemonly mustprogress nofree nounwind readonly willreturn
declare i32 @strcmp(i8* nocapture, i8* nocapture) local_unnamed_addr #3

; Function Attrs: nofree nounwind
declare noundef i32 @printf(i8* nocapture noundef readonly, ...) local_unnamed_addr #2

; Function Attrs: argmemonly mustprogress nofree nosync nounwind willreturn
declare void @llvm.lifetime.end.p0i8(i64 immarg, i8* nocapture) #1


!llvm.module.flags = !{!0, !1, !2, !3}
!llvm.ident = !{!4}

!0 = !{i32 1, !"wchar_size", i32 4}
!1 = !{i32 7, !"PIC Level", i32 2}
!2 = !{i32 7, !"PIE Level", i32 2}
!3 = !{i32 7, !"uwtable", i32 1}
!4 = !{!"clang version 13.0.0"}
!5 = !{!6, !7, i64 400}
!6 = !{!"student", !7, i64 0, !7, i64 200, !7, i64 400, !9, i64 404, !7, i64 408, !7, i64 428}
!7 = !{!"omnipotent char", !8, i64 0}
!8 = !{!"Simple C/C++ TBAA"}
!9 = !{!"int", !7, i64 0}
!10 = !{!6, !9, i64 404}
!11 = distinct !{!11, !12}
!12 = !{!"llvm.loop.mustprogress"}
